target datalayout = "e-m:e-p270:32:32-p271:32:32-p272:64:64-i64:64-i128:128-f80:128-n8:16:32:64-S128"
target triple = "x86_64-pc-linux-gnu"

%"class.glslang::TQualifier" = type <{ ptr, i64, i8, [3 x i8], i32, i32, i64, i64, i8, i8, i8, i8, i8, [3 x i8], i32, i8, i8, i8, i8, i32, ptr, i8, i8, [6 x i8] }>
%"class.glslang::TType" = type { ptr, i32, [4 x i8], %"class.glslang::TQualifier", ptr, %union.anon.92, ptr, ptr, %"struct.glslang::TSampler", ptr, ptr }
%union.anon.92 = type { ptr }
%"struct.glslang::TSampler" = type { i32 }
%"struct.std::_Vector_base.127" = type { %"struct.std::_Vector_base<glslang::TTypeLoc, glslang::pool_allocator<glslang::TTypeLoc>>::_Vector_impl" }
%"struct.std::_Vector_base<glslang::TTypeLoc, glslang::pool_allocator<glslang::TTypeLoc>>::_Vector_impl" = type { %"class.glslang::pool_allocator.128", %"struct.std::_Vector_base<glslang::TTypeLoc, glslang::pool_allocator<glslang::TTypeLoc>>::_Vector_impl_data" }
%"class.glslang::pool_allocator.128" = type { ptr }
%"struct.std::_Vector_base<glslang::TTypeLoc, glslang::pool_allocator<glslang::TTypeLoc>>::_Vector_impl_data" = type { ptr, ptr, ptr }

; Function Attrs: mustprogress nounwind uwtable
define linkonce_odr noundef i64 @_ZNKSt6vectorIN7glslang8TTypeLocENS0_14pool_allocatorIS1_EEE4sizeEv(ptr noundef nonnull align 8 dereferenceable(32) %0) #0 comdat align 2 {
  %2 = alloca ptr, align 8
  store ptr %0, ptr %2, align 8
  %3 = load ptr, ptr %2, align 8
  %4 = getelementptr inbounds %"struct.std::_Vector_base.127", ptr %3, i32 0, i32 0
  %5 = getelementptr inbounds i8, ptr %4, i64 8
  %6 = getelementptr inbounds %"struct.std::_Vector_base<glslang::TTypeLoc, glslang::pool_allocator<glslang::TTypeLoc>>::_Vector_impl_data", ptr %5, i32 0, i32 1
  %7 = load ptr, ptr %6, align 8
  %8 = getelementptr inbounds %"struct.std::_Vector_base.127", ptr %3, i32 0, i32 0
  %9 = getelementptr inbounds i8, ptr %8, i64 8
  %10 = getelementptr inbounds %"struct.std::_Vector_base<glslang::TTypeLoc, glslang::pool_allocator<glslang::TTypeLoc>>::_Vector_impl_data", ptr %9, i32 0, i32 0
  %11 = load ptr, ptr %10, align 8
  %12 = ptrtoint ptr %7 to i64
  %13 = ptrtoint ptr %11 to i64
  %14 = sub i64 %12, %13
  %15 = sdiv exact i64 %14, 32
  ret i64 %15
}

; Function Attrs: mustprogress nounwind uwtable
define linkonce_odr noundef ptr @_ZNK7glslang5TType9getStructEv(ptr noundef nonnull align 8 dereferenceable(152) %0) #0 comdat align 2 {
  %2 = alloca ptr, align 8
  store ptr %0, ptr %2, align 8
  %3 = load ptr, ptr %2, align 8
  %4 = getelementptr inbounds %"class.glslang::TType", ptr %3, i32 0, i32 5
  %5 = load ptr, ptr %4, align 8
  ret ptr %5
}

; Function Attrs: mustprogress nounwind uwtable
define linkonce_odr void @_ZN7glslang5TTypeD2Ev(ptr noundef nonnull align 8 dereferenceable(152) %0) unnamed_addr #0 comdat align 2 {
  %2 = alloca ptr, align 8
  store ptr %0, ptr %2, align 8
  ret void
}

; Function Attrs: mustprogress nounwind uwtable
define noundef i32 @_ZN7glslang13TIntermediate30computeTypeUniformLocationSizeERKNS_5TTypeE(ptr noundef nonnull align 8 dereferenceable(152) %0) #0 align 2 {
  %2 = alloca i32, align 4
  %3 = alloca ptr, align 8
  %4 = alloca %"class.glslang::TType", align 8
  %5 = alloca i32, align 4
  %6 = alloca i32, align 4
  %7 = alloca i32, align 4
  %8 = alloca %"class.glslang::TType", align 8
  store ptr %0, ptr %3, align 8
  %9 = load ptr, ptr %3, align 8
  %10 = load ptr, ptr %9, align 8
  %11 = getelementptr inbounds ptr, ptr %10, i64 29
  %12 = load ptr, ptr %11, align 8
  %13 = call noundef zeroext i1 %12(ptr noundef nonnull align 8 dereferenceable(152) %9)
  br i1 %13, label %14, label %32

14:                                               ; preds = %1
  %15 = load ptr, ptr %3, align 8
  call void @_ZN7glslang5TTypeC2ERKS0_ib(ptr noundef nonnull align 8 dereferenceable(152) %4, ptr noundef nonnull align 8 dereferenceable(152) %15, i32 noundef 0, i1 noundef zeroext false)
  %16 = load ptr, ptr %3, align 8
  %17 = load ptr, ptr %16, align 8
  %18 = getelementptr inbounds ptr, ptr %17, i64 30
  %19 = load ptr, ptr %18, align 8
  %20 = call noundef zeroext i1 %19(ptr noundef nonnull align 8 dereferenceable(152) %16)
  br i1 %20, label %21, label %29

21:                                               ; preds = %14
  %22 = load ptr, ptr %3, align 8
  %23 = load ptr, ptr %22, align 8
  %24 = getelementptr inbounds ptr, ptr %23, i64 15
  %25 = load ptr, ptr %24, align 8
  %26 = call noundef i32 %25(ptr noundef nonnull align 8 dereferenceable(152) %22)
  %27 = call noundef i32 @_ZN7glslang13TIntermediate30computeTypeUniformLocationSizeERKNS_5TTypeE(ptr noundef nonnull align 8 dereferenceable(152) %4)
  %28 = mul nsw i32 %26, %27
  store i32 %28, ptr %2, align 4
  store i32 1, ptr %5, align 4
  br label %31

29:                                               ; preds = %14
  %30 = call noundef i32 @_ZN7glslang13TIntermediate30computeTypeUniformLocationSizeERKNS_5TTypeE(ptr noundef nonnull align 8 dereferenceable(152) %4)
  store i32 %30, ptr %2, align 4
  store i32 1, ptr %5, align 4
  br label %31

31:                                               ; preds = %29, %21
  call void @_ZN7glslang5TTypeD2Ev(ptr noundef nonnull align 8 dereferenceable(152) %4) #12
  br label %58

32:                                               ; preds = %1
  %33 = load ptr, ptr %3, align 8
  %34 = load ptr, ptr %33, align 8
  %35 = getelementptr inbounds ptr, ptr %34, i64 37
  %36 = load ptr, ptr %35, align 8
  %37 = call noundef zeroext i1 %36(ptr noundef nonnull align 8 dereferenceable(152) %33)
  br i1 %37, label %38, label %57

38:                                               ; preds = %32
  store i32 0, ptr %6, align 4
  store i32 0, ptr %7, align 4
  br label %39

39:                                               ; preds = %52, %38
  %40 = load i32, ptr %7, align 4
  %41 = load ptr, ptr %3, align 8
  %42 = call noundef ptr @_ZNK7glslang5TType9getStructEv(ptr noundef nonnull align 8 dereferenceable(152) %41)
  %43 = call noundef i64 @_ZNKSt6vectorIN7glslang8TTypeLocENS0_14pool_allocatorIS1_EEE4sizeEv(ptr noundef nonnull align 8 dereferenceable(32) %42) #12
  %44 = trunc i64 %43 to i32
  %45 = icmp slt i32 %40, %44
  br i1 %45, label %46, label %55

46:                                               ; preds = %39
  %47 = load ptr, ptr %3, align 8
  %48 = load i32, ptr %7, align 4
  call void @_ZN7glslang5TTypeC2ERKS0_ib(ptr noundef nonnull align 8 dereferenceable(152) %8, ptr noundef nonnull align 8 dereferenceable(152) %47, i32 noundef %48, i1 noundef zeroext false)
  %49 = call noundef i32 @_ZN7glslang13TIntermediate30computeTypeUniformLocationSizeERKNS_5TTypeE(ptr noundef nonnull align 8 dereferenceable(152) %8)
  %50 = load i32, ptr %6, align 4
  %51 = add nsw i32 %50, %49
  store i32 %51, ptr %6, align 4
  call void @_ZN7glslang5TTypeD2Ev(ptr noundef nonnull align 8 dereferenceable(152) %8) #12
  br label %52

52:                                               ; preds = %46
  %53 = load i32, ptr %7, align 4
  %54 = add nsw i32 %53, 1
  store i32 %54, ptr %7, align 4
  br label %39, !llvm.loop !55

55:                                               ; preds = %39
  %56 = load i32, ptr %6, align 4
  store i32 %56, ptr %2, align 4
  br label %58

57:                                               ; preds = %32
  store i32 1, ptr %2, align 4
  br label %58

58:                                               ; preds = %57, %55, %31
  %59 = load i32, ptr %2, align 4
  ret i32 %59
}