; Function Attrs: mustprogress nounwind uwtable
define noundef i32 @_ZN7glslang13TIntermediate30computeTypeUniformLocationSizeERKNS_5TTypeE(ptr noundef nonnull align 8 dereferenceable(152) %0) local_unnamed_addr #0 align 2 {
  %2 = alloca %"class.glslang::TType", align 8
  %3 = alloca %"class.glslang::TType", align 8
  %4 = load ptr, ptr %0, align 8
  %5 = getelementptr inbounds i8, ptr %4, i64 232
  %6 = load ptr, ptr %5, align 8
  %7 = tail call noundef zeroext i1 %6(ptr noundef nonnull align 8 dereferenceable(152) %0) #18
  br i1 %7, label %8, label %22

8:                                                ; preds = %1
  call void @_ZN7glslang5TTypeC2ERKS0_ib(ptr noundef nonnull align 8 dereferenceable(152) %2, ptr noundef nonnull align 8 dereferenceable(152) %0, i32 noundef 0, i1 noundef zeroext false)
  %9 = load ptr, ptr %0, align 8
  %10 = getelementptr inbounds i8, ptr %9, i64 240
  %11 = load ptr, ptr %10, align 8
  %12 = call noundef zeroext i1 %11(ptr noundef nonnull align 8 dereferenceable(152) %0) #18
  br i1 %12, label %13, label %20

13:                                               ; preds = %8
  %14 = load ptr, ptr %0, align 8
  %15 = getelementptr inbounds i8, ptr %14, i64 120
  %16 = load ptr, ptr %15, align 8
  %17 = call noundef i32 %16(ptr noundef nonnull align 8 dereferenceable(152) %0) #18
  %18 = call noundef i32 @_ZN7glslang13TIntermediate30computeTypeUniformLocationSizeERKNS_5TTypeE(ptr noundef nonnull align 8 dereferenceable(152) %2)
  %19 = mul nsw i32 %18, %17
  br label %.loopexit

20:                                               ; preds = %8
  %21 = call noundef i32 @_ZN7glslang13TIntermediate30computeTypeUniformLocationSizeERKNS_5TTypeE(ptr noundef nonnull align 8 dereferenceable(152) %2)
  br label %.loopexit

22:                                               ; preds = %1
  %23 = load ptr, ptr %0, align 8
  %24 = getelementptr inbounds i8, ptr %23, i64 296
  %25 = load ptr, ptr %24, align 8
  %26 = tail call noundef zeroext i1 %25(ptr noundef nonnull align 8 dereferenceable(152) %0) #18
  br i1 %26, label %.preheader, label %.loopexit

.preheader:                                       ; preds = %22
  %27 = getelementptr inbounds i8, ptr %0, i64 104
  %28 = load ptr, ptr %27, align 8
  %29 = getelementptr inbounds i8, ptr %28, i64 8
  %30 = getelementptr inbounds i8, ptr %28, i64 16
  %31 = load ptr, ptr %30, align 8
  %32 = load ptr, ptr %29, align 8
  %33 = ptrtoint ptr %31 to i64
  %34 = ptrtoint ptr %32 to i64
  %35 = sub i64 %33, %34
  %36 = lshr exact i64 %35, 5
  %37 = trunc i64 %36 to i32
  %38 = icmp sgt i32 %37, 0
  br i1 %38, label %.lr.ph, label %.loopexit

.lr.ph:                                           ; preds = %.preheader, %.lr.ph
  %.015 = phi i32 [ %41, %.lr.ph ], [ 0, %.preheader ]
  %.01214 = phi i32 [ %40, %.lr.ph ], [ 0, %.preheader ]
  call void @_ZN7glslang5TTypeC2ERKS0_ib(ptr noundef nonnull align 8 dereferenceable(152) %3, ptr noundef nonnull align 8 dereferenceable(152) %0, i32 noundef %.015, i1 noundef zeroext false)
  %39 = call noundef i32 @_ZN7glslang13TIntermediate30computeTypeUniformLocationSizeERKNS_5TTypeE(ptr noundef nonnull align 8 dereferenceable(152) %3)
  %40 = add nsw i32 %39, %.01214
  %41 = add nuw nsw i32 %.015, 1
  %42 = load ptr, ptr %27, align 8
  %43 = getelementptr inbounds i8, ptr %42, i64 8
  %44 = getelementptr inbounds i8, ptr %42, i64 16
  %45 = load ptr, ptr %44, align 8
  %46 = load ptr, ptr %43, align 8
  %47 = ptrtoint ptr %45 to i64
  %48 = ptrtoint ptr %46 to i64
  %49 = sub i64 %47, %48
  %50 = lshr exact i64 %49, 5
  %51 = trunc i64 %50 to i32
  %52 = icmp slt i32 %41, %51
  br i1 %52, label %.lr.ph, label %.loopexit, !llvm.loop !223

.loopexit:                                        ; preds = %.lr.ph, %.preheader, %13, %20, %22
  %.1 = phi i32 [ 1, %22 ], [ %19, %13 ], [ %21, %20 ], [ 0, %.preheader ], [ %40, %.lr.ph ]
  ret i32 %.1
}